target datalayout = "e-m:e-p270:32:32-p271:32:32-p272:64:64-i64:64-i128:128-f80:128-n8:16:32:64-S128"
target triple = "x86_64-pc-linux-gnu"

%struct._mod = type { i32, %union.anon.6 }
%union.anon.6 = type { %struct.anon.7 }
%struct.anon.7 = type { ptr, ptr }
%struct.anon.9 = type { ptr }

@PyExc_ValueError = external global ptr, align 8
@.str = private unnamed_addr constant [40 x i8] c"field 'body' is required for Expression\00", align 1

; Function Attrs: nounwind uwtable
define hidden ptr @_PyAST_Expression(ptr noundef %0, ptr noundef %1) #0 {
  %3 = alloca ptr, align 8
  %4 = alloca ptr, align 8
  %5 = alloca ptr, align 8
  %6 = alloca ptr, align 8
  %7 = alloca i32, align 4
  store ptr %0, ptr %4, align 8, !tbaa !34
  store ptr %1, ptr %5, align 8, !tbaa !24
  call void @llvm.lifetime.start.p0(i64 8, ptr %6) #8
  %8 = load ptr, ptr %4, align 8, !tbaa !34
  %9 = icmp ne ptr %8, null
  br i1 %9, label %12, label %10

10:                                               ; preds = %2
  %11 = load ptr, ptr @PyExc_ValueError, align 8, !tbaa !13
  call void @PyErr_SetString(ptr noundef %11, ptr noundef @.str)
  store ptr null, ptr %3, align 8
  store i32 1, ptr %7, align 4
  br label %26

12:                                               ; preds = %2
  %13 = load ptr, ptr %5, align 8, !tbaa !24
  %14 = call ptr @_PyArena_Malloc(ptr noundef %13, i64 noundef 24)
  store ptr %14, ptr %6, align 8, !tbaa !30
  %15 = load ptr, ptr %6, align 8, !tbaa !30
  %16 = icmp ne ptr %15, null
  br i1 %16, label %18, label %17

17:                                               ; preds = %12
  store ptr null, ptr %3, align 8
  store i32 1, ptr %7, align 4
  br label %26

18:                                               ; preds = %12
  %19 = load ptr, ptr %6, align 8, !tbaa !30
  %20 = getelementptr inbounds nuw %struct._mod, ptr %19, i32 0, i32 0
  store i32 3, ptr %20, align 8, !tbaa !32
  %21 = load ptr, ptr %4, align 8, !tbaa !34
  %22 = load ptr, ptr %6, align 8, !tbaa !30
  %23 = getelementptr inbounds nuw %struct._mod, ptr %22, i32 0, i32 1
  %24 = getelementptr inbounds nuw %struct.anon.9, ptr %23, i32 0, i32 0
  store ptr %21, ptr %24, align 8, !tbaa !21
  %25 = load ptr, ptr %6, align 8, !tbaa !30
  store ptr %25, ptr %3, align 8
  store i32 1, ptr %7, align 4
  br label %26

26:                                               ; preds = %18, %17, %10
  call void @llvm.lifetime.end.p0(i64 8, ptr %6) #8
  %27 = load ptr, ptr %3, align 8
  ret ptr %27
}