; Function Attrs: nounwind uwtable
define hidden ptr @_PyAST_Expression(ptr noundef %0, ptr noundef %1) local_unnamed_addr #0 {
  %.not = icmp eq ptr %0, null
  br i1 %.not, label %3, label %5

3:                                                ; preds = %2
  %4 = load ptr, ptr @PyExc_ValueError, align 8, !tbaa !4
  tail call void @PyErr_SetString(ptr noundef %4, ptr noundef nonnull @.str) #8
  br label %9

5:                                                ; preds = %2
  %6 = tail call ptr @_PyArena_Malloc(ptr noundef %1, i64 noundef 24) #8
  %.not10 = icmp eq ptr %6, null
  br i1 %.not10, label %9, label %7

7:                                                ; preds = %5
  store i32 3, ptr %6, align 8, !tbaa !18
  %8 = getelementptr inbounds nuw i8, ptr %6, i64 8
  store ptr %0, ptr %8, align 8, !tbaa !9
  br label %9

9:                                                ; preds = %5, %7, %3
  %.0 = phi ptr [ %6, %7 ], [ null, %3 ], [ null, %5 ]
  ret ptr %.0
}